; Function Attrs: mustprogress nounwind uwtable
define noundef ptr @_ZN7glslang13TIntermediate9addSymbolExRKNSt7__cxx1112basic_stringIcSt11char_traitsIcENS_14pool_allocatorIcEEEERKNS_5TTypeERKNS_16TConstUnionArrayEPNS_12TIntermTypedERKNS_10TSourceLocE(ptr nocapture noundef nonnull readnone align 8 dereferenceable(2024) %0, i64 noundef %1, ptr noundef nonnull align 8 dereferenceable(40) %2, ptr noundef nonnull align 8 dereferenceable(152) %3, ptr nocapture noundef nonnull readonly align 8 dereferenceable(16) %4, ptr noundef %5, ptr noundef nonnull align 8 dereferenceable(24) %6) local_unnamed_addr #0 align 2 {
  %8 = tail call noundef nonnull align 8 dereferenceable(96) ptr @_ZN7glslang22GetThreadPoolAllocatorEv() #17
  %9 = tail call noundef ptr @_ZN7glslang14TPoolAllocator8allocateEm(ptr noundef nonnull align 8 dereferenceable(96) %8, i64 noundef 264) #17
  tail call void @_ZN7glslang13TIntermSymbolC2ExRKNSt7__cxx1112basic_stringIcSt11char_traitsIcENS_14pool_allocatorIcEEEERKNS_5TTypeE(ptr noundef nonnull align 8 dereferenceable(264) %9, i64 noundef %1, ptr noundef nonnull align 8 dereferenceable(40) %2, ptr noundef nonnull align 8 dereferenceable(152) %3)
  %10 = load ptr, ptr %9, align 8
  %11 = getelementptr inbounds i8, ptr %10, i64 8
  %12 = load ptr, ptr %11, align 8
  tail call void %12(ptr noundef nonnull align 8 dereferenceable(32) %9, ptr noundef nonnull align 8 dereferenceable(24) %6) #17
  %13 = getelementptr inbounds i8, ptr %4, i64 8
  %14 = load ptr, ptr %13, align 8
  %15 = getelementptr inbounds i8, ptr %9, i64 248
  store ptr %14, ptr %15, align 8
  %16 = getelementptr inbounds i8, ptr %9, i64 256
  store ptr %5, ptr %16, align 8
  ret ptr %9
}